; Function Attrs: nounwind uwtable
define ptr @l_Lean_Compiler_LCNF_Alt_forCodeM___at_Lean_Compiler_LCNF_FloatLetIn_initialDecisions_goAlt___spec__13(ptr noundef %0, ptr noundef %1, ptr noundef %2, ptr noundef %3, ptr noundef %4, ptr noundef %5, ptr noundef %6, ptr noundef %7, ptr noundef %8) local_unnamed_addr #1 {
  %10 = ptrtoint ptr %0 to i64
  %11 = and i64 %10, 1
  %.not.i32 = icmp eq i64 %11, 0
  br i1 %.not.i32, label %15, label %12

12:                                               ; preds = %9
  %13 = lshr i64 %10, 1
  %14 = trunc i64 %13 to i32
  br label %lean_obj_tag.exit

15:                                               ; preds = %9
  %16 = getelementptr i8, ptr %0, i64 4
  %.val.i = load i32, ptr %16, align 4
  %17 = lshr i32 %.val.i, 24
  br label %lean_obj_tag.exit

lean_obj_tag.exit:                                ; preds = %12, %15
  %.0.i = phi i32 [ %14, %12 ], [ %17, %15 ]
  %18 = icmp eq i32 %.0.i, 0
  br i1 %18, label %19, label %37

19:                                               ; preds = %lean_obj_tag.exit
  %20 = getelementptr inbounds nuw i8, ptr %0, i64 24
  %21 = load ptr, ptr %20, align 8, !tbaa !4
  %22 = ptrtoint ptr %21 to i64
  %23 = and i64 %22, 1
  %.not39 = icmp eq i64 %23, 0
  br i1 %.not39, label %24, label %lean_inc.exit29

24:                                               ; preds = %19
  %.val.i33 = load i32, ptr %21, align 4, !tbaa !8
  %25 = icmp sgt i32 %.val.i33, 0
  br i1 %25, label %26, label %28, !prof !11

26:                                               ; preds = %24
  %27 = add nuw i32 %.val.i33, 1
  store i32 %27, ptr %21, align 4, !tbaa !8
  br label %lean_inc.exit29

28:                                               ; preds = %24
  %.not.i34 = icmp eq i32 %.val.i33, 0
  br i1 %.not.i34, label %lean_inc.exit29, label %29

29:                                               ; preds = %28
  tail call void @lean_inc_ref_cold(ptr noundef nonnull %21) #4
  br label %lean_inc.exit29

lean_inc.exit29:                                  ; preds = %29, %28, %26, %19
  br i1 %.not.i32, label %30, label %lean_dec.exit28

30:                                               ; preds = %lean_inc.exit29
  %31 = load i32, ptr %0, align 4, !tbaa !8
  %32 = icmp sgt i32 %31, 1
  br i1 %32, label %33, label %35, !prof !11

33:                                               ; preds = %30
  %34 = add nsw i32 %31, -1
  store i32 %34, ptr %0, align 4, !tbaa !8
  br label %lean_dec.exit28

35:                                               ; preds = %30
  %.not.i = icmp eq i32 %31, 0
  br i1 %.not.i, label %lean_dec.exit28, label %36

36:                                               ; preds = %35
  tail call void @lean_dec_ref_cold(ptr noundef nonnull %0) #4
  br label %lean_dec.exit28

37:                                               ; preds = %lean_obj_tag.exit
  %38 = getelementptr inbounds nuw i8, ptr %0, i64 8
  %39 = load ptr, ptr %38, align 8, !tbaa !4
  %40 = ptrtoint ptr %39 to i64
  %41 = and i64 %40, 1
  %.not = icmp eq i64 %41, 0
  br i1 %.not, label %42, label %lean_inc.exit

42:                                               ; preds = %37
  %.val.i35 = load i32, ptr %39, align 4, !tbaa !8
  %43 = icmp sgt i32 %.val.i35, 0
  br i1 %43, label %44, label %46, !prof !11

44:                                               ; preds = %42
  %45 = add nuw i32 %.val.i35, 1
  store i32 %45, ptr %39, align 4, !tbaa !8
  br label %lean_inc.exit

46:                                               ; preds = %42
  %.not.i36 = icmp eq i32 %.val.i35, 0
  br i1 %.not.i36, label %lean_inc.exit, label %47

47:                                               ; preds = %46
  tail call void @lean_inc_ref_cold(ptr noundef nonnull %39) #4
  br label %lean_inc.exit

lean_inc.exit:                                    ; preds = %47, %46, %44, %37
  br i1 %.not.i32, label %48, label %lean_dec.exit28

48:                                               ; preds = %lean_inc.exit
  %49 = load i32, ptr %0, align 4, !tbaa !8
  %50 = icmp sgt i32 %49, 1
  br i1 %50, label %51, label %53, !prof !11

51:                                               ; preds = %48
  %52 = add nsw i32 %49, -1
  store i32 %52, ptr %0, align 4, !tbaa !8
  br label %lean_dec.exit28

53:                                               ; preds = %48
  %.not.i30 = icmp eq i32 %49, 0
  br i1 %.not.i30, label %lean_dec.exit28, label %54

54:                                               ; preds = %53
  tail call void @lean_dec_ref_cold(ptr noundef nonnull %0) #4
  br label %lean_dec.exit28

lean_dec.exit28:                                  ; preds = %lean_inc.exit, %51, %53, %54, %lean_inc.exit29, %33, %35, %36
  %.sink = phi ptr [ %21, %36 ], [ %21, %35 ], [ %21, %33 ], [ %21, %lean_inc.exit29 ], [ %39, %54 ], [ %39, %53 ], [ %39, %51 ], [ %39, %lean_inc.exit ]
  %55 = tail call ptr @lean_apply_8(ptr noundef %1, ptr noundef %.sink, ptr noundef %2, ptr noundef %3, ptr noundef %4, ptr noundef %5, ptr noundef %6, ptr noundef %7, ptr noundef %8) #4
  ret ptr %55
}